target datalayout = "e-m:e-p270:32:32-p271:32:32-p272:64:64-i64:64-i128:128-f80:128-n8:16:32:64-S128"
target triple = "x86_64-pc-linux-gnu"

%struct.Gia_IsoMan_t_ = type { ptr, i32, i32, i32, i32, ptr, ptr, ptr, ptr, ptr, ptr, ptr, i64, i64, i64, i64, i64, i64 }
%struct.Vec_Int_t_ = type { i32, i32, ptr }

@.str.12 = private unnamed_addr constant [50 x i8] c"Broke ties in last class of size %d at level %d.\0A\00", align 1

; Function Attrs: inlinehint nounwind uwtable
define internal i32 @Gia_IsoGetItem(ptr noundef %0, i32 noundef %1) #3 {
  %3 = alloca ptr, align 8
  %4 = alloca i32, align 4
  store ptr %0, ptr %3, align 8, !tbaa !8
  store i32 %1, ptr %4, align 4, !tbaa !42
  %5 = load ptr, ptr %3, align 8, !tbaa !8
  %6 = getelementptr inbounds nuw %struct.Gia_IsoMan_t_, ptr %5, i32 0, i32 7
  %7 = load ptr, ptr %6, align 8, !tbaa !22
  %8 = load i32, ptr %4, align 4, !tbaa !42
  %9 = sext i32 %8 to i64
  %10 = getelementptr inbounds i64, ptr %7, i64 %9
  %11 = load i64, ptr %10, align 8, !tbaa !55
  %12 = lshr i64 %11, 32
  %13 = trunc i64 %12 to i32
  ret i32 %13
}

; Function Attrs: inlinehint nounwind uwtable
define internal void @Vec_IntShrink(ptr noundef %0, i32 noundef %1) #3 {
  %3 = alloca ptr, align 8
  %4 = alloca i32, align 4
  store ptr %0, ptr %3, align 8, !tbaa !43
  store i32 %1, ptr %4, align 4, !tbaa !42
  %5 = load i32, ptr %4, align 4, !tbaa !42
  %6 = load ptr, ptr %3, align 8, !tbaa !43
  %7 = getelementptr inbounds nuw %struct.Vec_Int_t_, ptr %6, i32 0, i32 1
  store i32 %5, ptr %7, align 4, !tbaa !44
  ret void
}

; Function Attrs: inlinehint nounwind uwtable
define internal i32 @Vec_IntEntry(ptr noundef %0, i32 noundef %1) #3 {
  %3 = alloca ptr, align 8
  %4 = alloca i32, align 4
  store ptr %0, ptr %3, align 8, !tbaa !43
  store i32 %1, ptr %4, align 4, !tbaa !42
  %5 = load ptr, ptr %3, align 8, !tbaa !43
  %6 = getelementptr inbounds nuw %struct.Vec_Int_t_, ptr %5, i32 0, i32 2
  %7 = load ptr, ptr %6, align 8, !tbaa !46
  %8 = load i32, ptr %4, align 4, !tbaa !42
  %9 = sext i32 %8 to i64
  %10 = getelementptr inbounds i32, ptr %7, i64 %9
  %11 = load i32, ptr %10, align 4, !tbaa !42
  ret i32 %11
}

; Function Attrs: inlinehint nounwind uwtable
define internal i32 @Vec_IntSize(ptr noundef %0) #3 {
  %2 = alloca ptr, align 8
  store ptr %0, ptr %2, align 8, !tbaa !43
  %3 = load ptr, ptr %2, align 8, !tbaa !43
  %4 = getelementptr inbounds nuw %struct.Vec_Int_t_, ptr %3, i32 0, i32 1
  %5 = load i32, ptr %4, align 4, !tbaa !44
  ret i32 %5
}

; Function Attrs: nounwind uwtable
define void @Gia_IsoAssignOneClass3(ptr noundef %0) #0 {
  %2 = alloca ptr, align 8
  %3 = alloca i32, align 4
  %4 = alloca i32, align 4
  store ptr %0, ptr %2, align 8, !tbaa !8
  call void @llvm.lifetime.start.p0(i64 4, ptr %3) #12
  call void @llvm.lifetime.start.p0(i64 4, ptr %4) #12
  %5 = load ptr, ptr %2, align 8, !tbaa !8
  %6 = getelementptr inbounds nuw %struct.Gia_IsoMan_t_, ptr %5, i32 0, i32 10
  %7 = load ptr, ptr %6, align 8, !tbaa !23
  %8 = load ptr, ptr %2, align 8, !tbaa !8
  %9 = getelementptr inbounds nuw %struct.Gia_IsoMan_t_, ptr %8, i32 0, i32 10
  %10 = load ptr, ptr %9, align 8, !tbaa !23
  %11 = call i32 @Vec_IntSize(ptr noundef %10)
  %12 = sub nsw i32 %11, 2
  %13 = call i32 @Vec_IntEntry(ptr noundef %7, i32 noundef %12)
  store i32 %13, ptr %3, align 4, !tbaa !42
  %14 = load ptr, ptr %2, align 8, !tbaa !8
  %15 = getelementptr inbounds nuw %struct.Gia_IsoMan_t_, ptr %14, i32 0, i32 10
  %16 = load ptr, ptr %15, align 8, !tbaa !23
  %17 = load ptr, ptr %2, align 8, !tbaa !8
  %18 = getelementptr inbounds nuw %struct.Gia_IsoMan_t_, ptr %17, i32 0, i32 10
  %19 = load ptr, ptr %18, align 8, !tbaa !23
  %20 = call i32 @Vec_IntSize(ptr noundef %19)
  %21 = sub nsw i32 %20, 1
  %22 = call i32 @Vec_IntEntry(ptr noundef %16, i32 noundef %21)
  store i32 %22, ptr %4, align 4, !tbaa !42
  %23 = load ptr, ptr %2, align 8, !tbaa !8
  %24 = getelementptr inbounds nuw %struct.Gia_IsoMan_t_, ptr %23, i32 0, i32 10
  %25 = load ptr, ptr %24, align 8, !tbaa !23
  %26 = load ptr, ptr %2, align 8, !tbaa !8
  %27 = getelementptr inbounds nuw %struct.Gia_IsoMan_t_, ptr %26, i32 0, i32 10
  %28 = load ptr, ptr %27, align 8, !tbaa !23
  %29 = call i32 @Vec_IntSize(ptr noundef %28)
  %30 = sub nsw i32 %29, 2
  call void @Vec_IntShrink(ptr noundef %25, i32 noundef %30)
  %31 = load i32, ptr %4, align 4, !tbaa !42
  %32 = icmp eq i32 %31, 2
  br i1 %32, label %33, label %75

33:                                               ; preds = %1
  %34 = load ptr, ptr %2, align 8, !tbaa !8
  %35 = getelementptr inbounds nuw %struct.Gia_IsoMan_t_, ptr %34, i32 0, i32 2
  %36 = load i32, ptr %35, align 4, !tbaa !18
  %37 = add nsw i32 %36, 1
  store i32 %37, ptr %35, align 4, !tbaa !18
  %38 = load ptr, ptr %2, align 8, !tbaa !8
  %39 = getelementptr inbounds nuw %struct.Gia_IsoMan_t_, ptr %38, i32 0, i32 6
  %40 = load ptr, ptr %39, align 8, !tbaa !21
  %41 = load ptr, ptr %2, align 8, !tbaa !8
  %42 = load i32, ptr %3, align 4, !tbaa !42
  %43 = call i32 @Gia_IsoGetItem(ptr noundef %41, i32 noundef %42)
  %44 = zext i32 %43 to i64
  %45 = getelementptr inbounds nuw i32, ptr %40, i64 %44
  store i32 %36, ptr %45, align 4, !tbaa !42
  %46 = load ptr, ptr %2, align 8, !tbaa !8
  %47 = getelementptr inbounds nuw %struct.Gia_IsoMan_t_, ptr %46, i32 0, i32 3
  %48 = load i32, ptr %47, align 8, !tbaa !56
  %49 = add nsw i32 %48, 1
  store i32 %49, ptr %47, align 8, !tbaa !56
  %50 = load ptr, ptr %2, align 8, !tbaa !8
  %51 = getelementptr inbounds nuw %struct.Gia_IsoMan_t_, ptr %50, i32 0, i32 4
  %52 = load i32, ptr %51, align 4, !tbaa !19
  %53 = add nsw i32 %52, -1
  store i32 %53, ptr %51, align 4, !tbaa !19
  %54 = load ptr, ptr %2, align 8, !tbaa !8
  %55 = getelementptr inbounds nuw %struct.Gia_IsoMan_t_, ptr %54, i32 0, i32 2
  %56 = load i32, ptr %55, align 4, !tbaa !18
  %57 = add nsw i32 %56, 1
  store i32 %57, ptr %55, align 4, !tbaa !18
  %58 = load ptr, ptr %2, align 8, !tbaa !8
  %59 = getelementptr inbounds nuw %struct.Gia_IsoMan_t_, ptr %58, i32 0, i32 6
  %60 = load ptr, ptr %59, align 8, !tbaa !21
  %61 = load ptr, ptr %2, align 8, !tbaa !8
  %62 = load i32, ptr %3, align 4, !tbaa !42
  %63 = add nsw i32 %62, 1
  %64 = call i32 @Gia_IsoGetItem(ptr noundef %61, i32 noundef %63)
  %65 = zext i32 %64 to i64
  %66 = getelementptr inbounds nuw i32, ptr %60, i64 %65
  store i32 %56, ptr %66, align 4, !tbaa !42
  %67 = load ptr, ptr %2, align 8, !tbaa !8
  %68 = getelementptr inbounds nuw %struct.Gia_IsoMan_t_, ptr %67, i32 0, i32 3
  %69 = load i32, ptr %68, align 8, !tbaa !56
  %70 = add nsw i32 %69, 1
  store i32 %70, ptr %68, align 8, !tbaa !56
  %71 = load ptr, ptr %2, align 8, !tbaa !8
  %72 = getelementptr inbounds nuw %struct.Gia_IsoMan_t_, ptr %71, i32 0, i32 4
  %73 = load i32, ptr %72, align 4, !tbaa !19
  %74 = add nsw i32 %73, -1
  store i32 %74, ptr %72, align 4, !tbaa !19
  br label %96

75:                                               ; preds = %1
  %76 = load ptr, ptr %2, align 8, !tbaa !8
  %77 = getelementptr inbounds nuw %struct.Gia_IsoMan_t_, ptr %76, i32 0, i32 2
  %78 = load i32, ptr %77, align 4, !tbaa !18
  %79 = add nsw i32 %78, 1
  store i32 %79, ptr %77, align 4, !tbaa !18
  %80 = load ptr, ptr %2, align 8, !tbaa !8
  %81 = getelementptr inbounds nuw %struct.Gia_IsoMan_t_, ptr %80, i32 0, i32 6
  %82 = load ptr, ptr %81, align 8, !tbaa !21
  %83 = load ptr, ptr %2, align 8, !tbaa !8
  %84 = load i32, ptr %3, align 4, !tbaa !42
  %85 = call i32 @Gia_IsoGetItem(ptr noundef %83, i32 noundef %84)
  %86 = zext i32 %85 to i64
  %87 = getelementptr inbounds nuw i32, ptr %82, i64 %86
  store i32 %78, ptr %87, align 4, !tbaa !42
  %88 = load ptr, ptr %2, align 8, !tbaa !8
  %89 = getelementptr inbounds nuw %struct.Gia_IsoMan_t_, ptr %88, i32 0, i32 3
  %90 = load i32, ptr %89, align 8, !tbaa !56
  %91 = add nsw i32 %90, 1
  store i32 %91, ptr %89, align 8, !tbaa !56
  %92 = load ptr, ptr %2, align 8, !tbaa !8
  %93 = getelementptr inbounds nuw %struct.Gia_IsoMan_t_, ptr %92, i32 0, i32 4
  %94 = load i32, ptr %93, align 4, !tbaa !19
  %95 = add nsw i32 %94, -1
  store i32 %95, ptr %93, align 4, !tbaa !19
  br label %96

96:                                               ; preds = %75, %33
  %97 = load i32, ptr %4, align 4, !tbaa !42
  %98 = load ptr, ptr %2, align 8, !tbaa !8
  %99 = getelementptr inbounds nuw %struct.Gia_IsoMan_t_, ptr %98, i32 0, i32 5
  %100 = load ptr, ptr %99, align 8, !tbaa !20
  %101 = load ptr, ptr %2, align 8, !tbaa !8
  %102 = load i32, ptr %3, align 4, !tbaa !42
  %103 = call i32 @Gia_IsoGetItem(ptr noundef %101, i32 noundef %102)
  %104 = zext i32 %103 to i64
  %105 = getelementptr inbounds nuw i32, ptr %100, i64 %104
  %106 = load i32, ptr %105, align 4, !tbaa !42
  %107 = call i32 (ptr, ...) @printf(ptr noundef @.str.12, i32 noundef %97, i32 noundef %106)
  call void @llvm.lifetime.end.p0(i64 4, ptr %4) #12
  call void @llvm.lifetime.end.p0(i64 4, ptr %3) #12
  ret void
}