; Function Attrs: nofree nounwind uwtable
define void @Gia_IsoAssignOneClass3(ptr noundef captures(none) %0) local_unnamed_addr #6 {
  %2 = getelementptr inbounds nuw i8, ptr %0, i64 64
  %3 = load ptr, ptr %2, align 8, !tbaa !40
  %4 = getelementptr i8, ptr %3, i64 4
  %.val29 = load i32, ptr %4, align 4, !tbaa !37
  %5 = add nsw i32 %.val29, -2
  %6 = getelementptr i8, ptr %3, i64 8
  %.val31 = load ptr, ptr %6, align 8, !tbaa !39
  %7 = sext i32 %5 to i64
  %8 = getelementptr inbounds i32, ptr %.val31, i64 %7
  %9 = load i32, ptr %8, align 4, !tbaa !43
  %10 = sext i32 %.val29 to i64
  %11 = getelementptr i32, ptr %.val31, i64 %10
  %12 = getelementptr i8, ptr %11, i64 -4
  %13 = load i32, ptr %12, align 4, !tbaa !43
  store i32 %5, ptr %4, align 4, !tbaa !37
  %14 = icmp eq i32 %13, 2
  %15 = getelementptr inbounds nuw i8, ptr %0, i64 12
  %16 = load i32, ptr %15, align 4, !tbaa !32
  %17 = add nsw i32 %16, 1
  store i32 %17, ptr %15, align 4, !tbaa !32
  %18 = getelementptr inbounds nuw i8, ptr %0, i64 32
  %19 = load ptr, ptr %18, align 8, !tbaa !35
  %20 = getelementptr i8, ptr %0, i64 40
  %.val35 = load ptr, ptr %20, align 8, !tbaa !36
  %21 = sext i32 %9 to i64
  %22 = getelementptr i64, ptr %.val35, i64 %21
  %23 = load i64, ptr %22, align 8, !tbaa !60
  %24 = lshr i64 %23, 32
  %25 = getelementptr inbounds nuw i32, ptr %19, i64 %24
  store i32 %16, ptr %25, align 4, !tbaa !43
  %26 = getelementptr inbounds nuw i8, ptr %0, i64 16
  %27 = load i32, ptr %26, align 8, !tbaa !49
  %28 = add nsw i32 %27, 1
  store i32 %28, ptr %26, align 8, !tbaa !49
  %29 = getelementptr inbounds nuw i8, ptr %0, i64 20
  %30 = load i32, ptr %29, align 4, !tbaa !33
  %31 = add nsw i32 %30, -1
  store i32 %31, ptr %29, align 4, !tbaa !33
  br i1 %14, label %32, label %43

32:                                               ; preds = %1
  %33 = load i32, ptr %15, align 4, !tbaa !32
  %34 = add nsw i32 %33, 1
  store i32 %34, ptr %15, align 4, !tbaa !32
  %35 = getelementptr i8, ptr %22, i64 8
  %36 = load i64, ptr %35, align 8, !tbaa !60
  %37 = lshr i64 %36, 32
  %38 = getelementptr inbounds nuw i32, ptr %19, i64 %37
  store i32 %33, ptr %38, align 4, !tbaa !43
  %39 = load i32, ptr %26, align 8, !tbaa !49
  %40 = add nsw i32 %39, 1
  store i32 %40, ptr %26, align 8, !tbaa !49
  %41 = load i32, ptr %29, align 4, !tbaa !33
  %42 = add nsw i32 %41, -1
  store i32 %42, ptr %29, align 4, !tbaa !33
  br label %43

43:                                               ; preds = %1, %32
  %44 = getelementptr inbounds nuw i8, ptr %0, i64 24
  %45 = load ptr, ptr %44, align 8, !tbaa !34
  %46 = getelementptr inbounds nuw i32, ptr %45, i64 %24
  %47 = load i32, ptr %46, align 4, !tbaa !43
  %48 = tail call i32 (ptr, ...) @printf(ptr noundef nonnull dereferenceable(1) @.str.12, i32 noundef %13, i32 noundef %47)
  ret void
}